; Function Attrs: nounwind uwtable
define i64 @dt_datetime_gdatetime_to_gtimespan(ptr noundef %0) local_unnamed_addr #0 {
  %.not = icmp eq ptr %0, null
  br i1 %.not, label %5, label %2

2:                                                ; preds = %1
  %3 = load ptr, ptr getelementptr inbounds nuw (i8, ptr @darktable, i64 3336), align 8, !tbaa !48
  %4 = tail call i64 @g_date_time_difference(ptr noundef nonnull %0, ptr noundef %3) #7
  br label %5

5:                                                ; preds = %1, %2
  %.0 = phi i64 [ %4, %2 ], [ 0, %1 ]
  ret i64 %.0
}